; Function Attrs: mustprogress uwtable
define internal void @_ZNK12_GLOBAL__N_115GOCLBackendImpl7compileERKN3ade5GraphERKSt6vectorIN2cv11GCompileArgESaIS7_EERKS5_INS1_6HandleINS1_4NodeEEESaISE_EE(ptr dead_on_unwind noalias writable writeonly sret(%"class.std::unique_ptr.445") align 8 captures(none) %0, ptr nonnull readnone align 8 captures(none) %1, ptr noundef nonnull align 8 dereferenceable(168) %2, ptr nonnull readnone align 8 captures(none) %3, ptr noundef nonnull readonly align 8 captures(none) dereferenceable(24) %4) unnamed_addr #3 align 2 personality ptr @__gxx_personality_v0 {
  %6 = tail call noalias noundef nonnull dereferenceable(1152) ptr @_Znwm(i64 noundef 1152) #28
  invoke void @_ZN2cv5gimpl14GOCLExecutableC2ERKN3ade5GraphERKSt6vectorINS2_6HandleINS2_4NodeEEESaIS9_EE(ptr noundef nonnull align 8 dereferenceable(1152) %6, ptr noundef nonnull align 8 dereferenceable(168) %2, ptr noundef nonnull align 8 dereferenceable(24) %4)
          to label %7 unwind label %8

7:                                                ; preds = %5
  store ptr %6, ptr %0, align 8, !tbaa !389
  ret void

8:                                                ; preds = %5
  %9 = landingpad { ptr, i32 }
          cleanup
  tail call void @_ZdlPv(ptr noundef nonnull %6) #29
  resume { ptr, i32 } %9
}